-----BEGIN CERTIFICATE-----
MIICCDCCAY2gAwIBAgIUdYkjFbz8Wfl9l3WA7FZRcPnGO8kwCgYIKoZIzj0EAwQw
GTEXMBUGA1UEAwwOSmV0SG9tZSBEZXYgQ0EwIBcNMjIxMDE4MTgzNzQ1WhgPMjEy
MjA5MjQxODM3NDVaMBkxFzAVBgNVBAMMDkpldEhvbWUgRGV2IENBMHYwEAYHKoZI
zj0CAQYFK4EEACIDYgAE03NE/RzUoWgypzGmd5r5xg2QnTiBrx0kwbJP6rK3dJw/
HHQn3IYokvpaqgaZ3t4No60tfHw0vCkHD90xs70YaDu5RZRdawiJSGSZRrM0fPDq
7MwN1DQxuFWFS/hIOjVZo4GTMIGQMAwGA1UdEwQFMAMBAf8wHQYDVR0OBBYEFFTA
4TEX1VCLJM5wUDb7YUBQq68MMFQGA1UdIwRNMEuAFFTA4TEX1VCLJM5wUDb7YUBQ
q68MoR2kGzAZMRcwFQYDVQQDDA5KZXRIb21lIERldiBDQYIUdYkjFbz8Wfl9l3WA
7FZRcPnGO8kwCwYDVR0PBAQDAgEGMAoGCCqGSM49BAMEA2kAMGYCMQDk4PNQlXYo
sX6i3U5xO0IIL2lOVYRNQCp4ilgLvsb67zhGoaYnPsFRhvwq3BScQIcCMQDxdkgz
yLMkNFPQHTPK90kJdd2MhvEFoS3ZWu517KXtW1+fu5h3CWwG7UOeQkG4jpg=
-----END CERTIFICATE-----
Certificate:
    Data:
        Version: 3 (0x2)
        Serial Number:
            92:c6:69:e5:36:ae:14:db:03:b9:e7:01:ed:69:57:6b
        Signature Algorithm: ecdsa-with-SHA512
        Issuer: CN=JetHome Dev CA
        Validity
            Not Before: Oct 18 18:37:53 2022 GMT
            Not After : Jan 20 18:37:53 2025 GMT
        Subject: CN=JetHome Dev CA Intermediate
        Subject Public Key Info:
            Public Key Algorithm: id-ecPublicKey
                Public-Key: (384 bit)
                pub:
                    04:03:24:72:ea:84:4f:84:18:2b:b6:32:6f:0f:46:
                    57:46:36:48:5b:7c:c7:c6:01:92:65:be:01:52:37:
                    26:2c:4d:15:38:49:43:96:19:c5:00:db:69:07:bd:
                    99:47:6f:b4:96:d6:e8:ad:72:7d:84:0f:6d:74:e6:
                    25:78:1a:62:6e:e6:a8:14:ec:4d:03:95:5c:b9:45:
                    a2:f0:f3:8e:32:69:a7:ae:8b:bb:78:6a:73:7b:07:
                    1d:39:9d:62:cc:bb:33
                ASN1 OID: secp384r1
                NIST CURVE: P-384
        X509v3 extensions:
            X509v3 Basic Constraints: 
                CA:TRUE
            X509v3 Subject Key Identifier: 
                95:FA:ED:FB:06:C3:A0:03:56:25:88:67:A3:B5:34:B7:C4:FD:DA:E5
            X509v3 Authority Key Identifier: 
                keyid:54:C0:E1:31:17:D5:50:8B:24:CE:70:50:36:FB:61:40:50:AB:AF:0C
                DirName:/CN=JetHome Dev CA
                serial:75:89:23:15:BC:FC:59:F9:7D:97:75:80:EC:56:51:70:F9:C6:3B:C9

            X509v3 Key Usage: 
                Certificate Sign, CRL Sign
    Signature Algorithm: ecdsa-with-SHA512
         30:64:02:30:46:b2:2f:91:37:b3:7f:38:4b:97:31:39:d4:a7:
         0f:bc:ed:09:cb:20:e7:6c:64:28:18:08:6b:0c:7d:64:aa:32:
         19:5d:8d:7c:c9:48:b8:ec:b6:b6:f8:9e:85:39:2f:e4:02:30:
         78:23:42:63:50:18:a4:a2:5c:8c:48:fb:2c:d0:a9:51:c5:14:
         63:8e:e2:3f:83:1d:f4:f3:eb:4e:2a:66:7e:84:58:39:49:4a:
         7e:e2:fb:67:9a:a0:11:cb:c0:cf:a2:87
-----BEGIN CERTIFICATE-----
MIICDjCCAZWgAwIBAgIRAJLGaeU2rhTbA7nnAe1pV2swCgYIKoZIzj0EAwQwGTEX
MBUGA1UEAwwOSmV0SG9tZSBEZXYgQ0EwHhcNMjIxMDE4MTgzNzUzWhcNMjUwMTIw
MTgzNzUzWjAmMSQwIgYDVQQDDBtKZXRIb21lIERldiBDQSBJbnRlcm1lZGlhdGUw
djAQBgcqhkjOPQIBBgUrgQQAIgNiAAQDJHLqhE+EGCu2Mm8PRldGNkhbfMfGAZJl
vgFSNyYsTRU4SUOWGcUA22kHvZlHb7SW1uitcn2ED2105iV4GmJu5qgU7E0DlVy5
RaLw844yaaeui7t4anN7Bx05nWLMuzOjgZMwgZAwDAYDVR0TBAUwAwEB/zAdBgNV
HQ4EFgQUlfrt+wbDoANWJYhno7U0t8T92uUwVAYDVR0jBE0wS4AUVMDhMRfVUIsk
znBQNvthQFCrrwyhHaQbMBkxFzAVBgNVBAMMDkpldEhvbWUgRGV2IENBghR1iSMV
vPxZ+X2XdYDsVlFw+cY7yTALBgNVHQ8EBAMCAQYwCgYIKoZIzj0EAwQDZwAwZAIw
RrIvkTezfzhLlzE51KcPvO0JyyDnbGQoGAhrDH1kqjIZXY18yUi47La2+J6FOS/k
AjB4I0JjUBikolyMSPss0KlRxRRjjuI/gx308+tOKmZ+hFg5SUp+4vtnmqARy8DP
ooc=
-----END CERTIFICATE-----
